target datalayout = "e-m:e-p270:32:32-p271:32:32-p272:64:64-i64:64-i128:128-f80:128-n8:16:32:64-S128"
target triple = "x86_64-pc-linux-gnu"

%struct.AVFilterPad = type { ptr, i32, i32, %union.anon, ptr, ptr, ptr }
%union.anon = type { ptr }
%struct.AVFilterContext = type { ptr, ptr, ptr, ptr, ptr, i32, ptr, ptr, i32, ptr, ptr, i32, i32, ptr, ptr, ptr, ptr, i32, ptr, i32, i32 }
%struct.DecimateContext = type { ptr, ptr, i32, i32, ptr, ptr, [2 x i32], i64, i64, i64, i32, i32, i32, i32, i32, i32, i32, ptr, %struct.AVRational, %struct.AVRational, %struct.AVRational, i32, double, double, i64, i64, i32, i32, i32, i32, i32 }
%struct.AVRational = type { i32, i32 }

@__const.decimate_init.pad = private unnamed_addr constant %struct.AVFilterPad { ptr @.str.24, i32 0, i32 0, %union.anon zeroinitializer, ptr null, ptr null, ptr null }, align 8
@.str.25 = private unnamed_addr constant [10 x i8] c"clean_src\00", align 1
@.str.26 = private unnamed_addr constant [49 x i8] c"blockx and blocky settings must be power of two\0A\00", align 1

; Function Attrs: cold nounwind optsize uwtable
define internal i32 @decimate_init(ptr noundef %0) #0 {
  %2 = alloca i32, align 4
  %3 = alloca ptr, align 8
  %4 = alloca ptr, align 8
  %5 = alloca %struct.AVFilterPad, align 8
  %6 = alloca i32, align 4
  %7 = alloca i32, align 4
  store ptr %0, ptr %3, align 8, !tbaa !4
  call void @llvm.lifetime.start.p0(i64 8, ptr %4) #11
  %8 = load ptr, ptr %3, align 8, !tbaa !4
  %9 = getelementptr inbounds nuw %struct.AVFilterContext, ptr %8, i32 0, i32 9
  %10 = load ptr, ptr %9, align 8, !tbaa !9
  store ptr %10, ptr %4, align 8, !tbaa !22
  call void @llvm.lifetime.start.p0(i64 48, ptr %5) #11
  call void @llvm.memcpy.p0.p0.i64(ptr align 8 %5, ptr align 8 @__const.decimate_init.pad, i64 48, i1 false)
  call void @llvm.lifetime.start.p0(i64 4, ptr %6) #11
  %11 = load ptr, ptr %3, align 8, !tbaa !4
  %12 = call i32 @ff_append_inpad(ptr noundef %11, ptr noundef %5)
  store i32 %12, ptr %6, align 4, !tbaa !24
  %13 = icmp slt i32 %12, 0
  br i1 %13, label %14, label %16

14:                                               ; preds = %1
  %15 = load i32, ptr %6, align 4, !tbaa !24
  store i32 %15, ptr %2, align 4
  store i32 1, ptr %7, align 4
  br label %57

16:                                               ; preds = %1
  %17 = load ptr, ptr %4, align 8, !tbaa !22
  %18 = getelementptr inbounds nuw %struct.DecimateContext, ptr %17, i32 0, i32 28
  %19 = load i32, ptr %18, align 8, !tbaa !25
  %20 = icmp ne i32 %19, 0
  br i1 %20, label %21, label %30

21:                                               ; preds = %16
  %22 = getelementptr inbounds nuw %struct.AVFilterPad, ptr %5, i32 0, i32 0
  store ptr @.str.25, ptr %22, align 8, !tbaa !34
  %23 = getelementptr inbounds nuw %struct.AVFilterPad, ptr %5, i32 0, i32 6
  store ptr null, ptr %23, align 8, !tbaa !36
  %24 = load ptr, ptr %3, align 8, !tbaa !4
  %25 = call i32 @ff_append_inpad(ptr noundef %24, ptr noundef %5)
  store i32 %25, ptr %6, align 4, !tbaa !24
  %26 = icmp slt i32 %25, 0
  br i1 %26, label %27, label %29

27:                                               ; preds = %21
  %28 = load i32, ptr %6, align 4, !tbaa !24
  store i32 %28, ptr %2, align 4
  store i32 1, ptr %7, align 4
  br label %57

29:                                               ; preds = %21
  br label %30

30:                                               ; preds = %29, %16
  %31 = load ptr, ptr %4, align 8, !tbaa !22
  %32 = getelementptr inbounds nuw %struct.DecimateContext, ptr %31, i32 0, i32 26
  %33 = load i32, ptr %32, align 8, !tbaa !37
  %34 = load ptr, ptr %4, align 8, !tbaa !22
  %35 = getelementptr inbounds nuw %struct.DecimateContext, ptr %34, i32 0, i32 26
  %36 = load i32, ptr %35, align 8, !tbaa !37
  %37 = sub nsw i32 %36, 1
  %38 = and i32 %33, %37
  %39 = icmp ne i32 %38, 0
  br i1 %39, label %50, label %40

40:                                               ; preds = %30
  %41 = load ptr, ptr %4, align 8, !tbaa !22
  %42 = getelementptr inbounds nuw %struct.DecimateContext, ptr %41, i32 0, i32 27
  %43 = load i32, ptr %42, align 4, !tbaa !38
  %44 = load ptr, ptr %4, align 8, !tbaa !22
  %45 = getelementptr inbounds nuw %struct.DecimateContext, ptr %44, i32 0, i32 27
  %46 = load i32, ptr %45, align 4, !tbaa !38
  %47 = sub nsw i32 %46, 1
  %48 = and i32 %43, %47
  %49 = icmp ne i32 %48, 0
  br i1 %49, label %50, label %52

50:                                               ; preds = %40, %30
  %51 = load ptr, ptr %3, align 8, !tbaa !4
  call void (ptr, i32, ptr, ...) @av_log(ptr noundef %51, i32 noundef 16, ptr noundef @.str.26)
  store i32 -22, ptr %2, align 4
  store i32 1, ptr %7, align 4
  br label %57

52:                                               ; preds = %40
  %53 = load ptr, ptr %4, align 8, !tbaa !22
  %54 = getelementptr inbounds nuw %struct.DecimateContext, ptr %53, i32 0, i32 9
  store i64 -9223372036854775808, ptr %54, align 8, !tbaa !39
  %55 = load ptr, ptr %4, align 8, !tbaa !22
  %56 = getelementptr inbounds nuw %struct.DecimateContext, ptr %55, i32 0, i32 8
  store i64 0, ptr %56, align 8, !tbaa !40
  store i32 0, ptr %2, align 4
  store i32 1, ptr %7, align 4
  br label %57

57:                                               ; preds = %52, %50, %27, %14
  call void @llvm.lifetime.end.p0(i64 4, ptr %6) #11
  call void @llvm.lifetime.end.p0(i64 48, ptr %5) #11
  call void @llvm.lifetime.end.p0(i64 8, ptr %4) #11
  %58 = load i32, ptr %2, align 4
  ret i32 %58
}