; Function Attrs: cold nounwind optsize uwtable
define internal range(i32 -2147483648, 1) i32 @decimate_init(ptr noundef %0) #0 {
  %2 = alloca %struct.AVFilterPad, align 8
  %3 = getelementptr inbounds nuw i8, ptr %0, i64 72
  %4 = load ptr, ptr %3, align 8, !tbaa !4
  call void @llvm.lifetime.start.p0(i64 48, ptr nonnull %2) #9
  call void @llvm.memcpy.p0.p0.i64(ptr noundef nonnull align 8 dereferenceable(48) %2, ptr noundef nonnull align 8 dereferenceable(48) @__const.decimate_init.pad, i64 48, i1 false)
  %5 = call i32 @ff_append_inpad(ptr noundef %0, ptr noundef nonnull %2) #9
  %6 = icmp slt i32 %5, 0
  br i1 %6, label %26, label %7

7:                                                ; preds = %1
  %8 = getelementptr inbounds nuw i8, ptr %4, i64 184
  %9 = load i32, ptr %8, align 8, !tbaa !20
  %.not = icmp eq i32 %9, 0
  br i1 %.not, label %14, label %10

10:                                               ; preds = %7
  store ptr @.str.25, ptr %2, align 8, !tbaa !29
  %11 = getelementptr inbounds nuw i8, ptr %2, i64 40
  store ptr null, ptr %11, align 8, !tbaa !31
  %12 = call i32 @ff_append_inpad(ptr noundef nonnull %0, ptr noundef nonnull %2) #9
  %13 = icmp slt i32 %12, 0
  br i1 %13, label %26, label %14

14:                                               ; preds = %10, %7
  %15 = getelementptr inbounds nuw i8, ptr %4, i64 176
  %16 = load i32, ptr %15, align 8, !tbaa !32
  %17 = call range(i32 0, 33) i32 @llvm.ctpop.i32(i32 %16)
  %.not15 = icmp samesign ult i32 %17, 2
  br i1 %.not15, label %18, label %22

18:                                               ; preds = %14
  %19 = getelementptr inbounds nuw i8, ptr %4, i64 180
  %20 = load i32, ptr %19, align 4, !tbaa !33
  %21 = call range(i32 0, 33) i32 @llvm.ctpop.i32(i32 %20)
  %.not16 = icmp samesign ult i32 %21, 2
  br i1 %.not16, label %23, label %22

22:                                               ; preds = %18, %14
  call void (ptr, i32, ptr, ...) @av_log(ptr noundef nonnull %0, i32 noundef 16, ptr noundef nonnull @.str.26) #9
  br label %26

23:                                               ; preds = %18
  %24 = getelementptr inbounds nuw i8, ptr %4, i64 64
  store i64 -9223372036854775808, ptr %24, align 8, !tbaa !34
  %25 = getelementptr inbounds nuw i8, ptr %4, i64 56
  store i64 0, ptr %25, align 8, !tbaa !35
  br label %26

26:                                               ; preds = %10, %1, %23, %22
  %.0 = phi i32 [ -22, %22 ], [ 0, %23 ], [ %5, %1 ], [ %12, %10 ]
  call void @llvm.lifetime.end.p0(i64 48, ptr nonnull %2) #9
  ret i32 %.0
}